; Function Attrs: mustprogress uwtable
define internal void @_ZZN12_GLOBAL__N_121DOCTEST_ANON_CLASS_481fEvENUlRN4Luau7CodeGen3X6418AssemblyBuilderX64EE_8__invokeES5_(ptr noundef nonnull align 8 dereferenceable(252) %0) #2 align 2 {
  %2 = alloca %"struct.Luau::CodeGen::Label", align 4
  call void @llvm.lifetime.start.p0(i64 8, ptr nonnull %2)
  store i32 0, ptr %2, align 4
  %3 = getelementptr inbounds nuw i8, ptr %2, i64 4
  store i32 -1, ptr %3, align 4
  tail call void @_ZN4Luau7CodeGen3X6418AssemblyBuilderX644and_ENS1_10OperandX64ES3_(ptr noundef nonnull align 8 dereferenceable(252) %0, i64 269254656, i64 266564829186)
  call void @_ZN4Luau7CodeGen3X6418AssemblyBuilderX644callERNS0_5LabelE(ptr noundef nonnull align 8 dereferenceable(252) %0, ptr noundef nonnull align 4 dereferenceable(8) %2)
  call void @_ZN4Luau7CodeGen3X6418AssemblyBuilderX643retEv(ptr noundef nonnull align 8 dereferenceable(252) %0)
  call void @_ZN4Luau7CodeGen3X6418AssemblyBuilderX648setLabelERNS0_5LabelE(ptr noundef nonnull align 8 dereferenceable(252) %0, ptr noundef nonnull align 4 dereferenceable(8) %2)
  call void @_ZN4Luau7CodeGen3X6418AssemblyBuilderX643leaENS1_10OperandX64ES3_(ptr noundef nonnull align 8 dereferenceable(252) %0, i64 268730368, i64 133413240833)
  call void @_ZN4Luau7CodeGen3X6418AssemblyBuilderX643retEv(ptr noundef nonnull align 8 dereferenceable(252) %0)
  call void @llvm.lifetime.end.p0(i64 8, ptr nonnull %2)
  ret void
}